target datalayout = "e-m:e-p270:32:32-p271:32:32-p272:64:64-i64:64-i128:128-f80:128-n8:16:32:64-S128"
target triple = "x86_64-pc-linux-gnu"

@zend_write = global ptr null, align 8
@.str.47 = private unnamed_addr constant [3 x i8] c"On\00", align 1
@.str.48 = private unnamed_addr constant [4 x i8] c"Off\00", align 1

; Function Attrs: nounwind uwtable
define internal void @zend_gc_enabled_displayer_cb(ptr noundef %0, i32 noundef %1) #0 {
  %3 = alloca ptr, align 8
  %4 = alloca i32, align 4
  store ptr %0, ptr %3, align 8
  store i32 %1, ptr %4, align 4
  %5 = call zeroext i1 @gc_enabled()
  br i1 %5, label %6, label %9

6:                                                ; preds = %2
  %7 = load ptr, ptr @zend_write, align 8
  %8 = call i64 %7(ptr noundef @.str.47, i64 noundef 2)
  br label %12

9:                                                ; preds = %2
  %10 = load ptr, ptr @zend_write, align 8
  %11 = call i64 %10(ptr noundef @.str.48, i64 noundef 3)
  br label %12

12:                                               ; preds = %9, %6
  ret void
}