; Function Attrs: nounwind uwtable
define internal void @zend_gc_enabled_displayer_cb(ptr nocapture readnone %0, i32 %1) #0 {
  %3 = tail call zeroext i1 @gc_enabled() #30
  %4 = load ptr, ptr @zend_write, align 8
  br i1 %3, label %5, label %7

5:                                                ; preds = %2
  %6 = tail call i64 %4(ptr noundef nonnull @.str.47, i64 noundef 2) #30
  br label %9

7:                                                ; preds = %2
  %8 = tail call i64 %4(ptr noundef nonnull @.str.48, i64 noundef 3) #30
  br label %9

9:                                                ; preds = %7, %5
  ret void
}